target datalayout = "e-m:e-p270:32:32-p271:32:32-p272:64:64-i64:64-i128:128-f80:128-n8:16:32:64-S128"
target triple = "x86_64-pc-linux-gnu"

; Function Attrs: nounwind uwtable
define dso_local i64 @xdl_bogosqrt(i64 noundef %0) #0 {
  %2 = alloca i64, align 8
  %3 = alloca i64, align 8
  store i64 %0, ptr %2, align 8, !tbaa !4
  call void @llvm.lifetime.start.p0(i64 8, ptr %3) #6
  store i64 1, ptr %3, align 8, !tbaa !4
  br label %4

4:                                                ; preds = %10, %1
  %5 = load i64, ptr %2, align 8, !tbaa !4
  %6 = icmp sgt i64 %5, 0
  br i1 %6, label %7, label %13

7:                                                ; preds = %4
  %8 = load i64, ptr %3, align 8, !tbaa !4
  %9 = shl i64 %8, 1
  store i64 %9, ptr %3, align 8, !tbaa !4
  br label %10

10:                                               ; preds = %7
  %11 = load i64, ptr %2, align 8, !tbaa !4
  %12 = ashr i64 %11, 2
  store i64 %12, ptr %2, align 8, !tbaa !4
  br label %4, !llvm.loop !8

13:                                               ; preds = %4
  %14 = load i64, ptr %3, align 8, !tbaa !4
  call void @llvm.lifetime.end.p0(i64 8, ptr %3) #6
  ret i64 %14
}