; Function Attrs: nofree norecurse nosync nounwind memory(none) uwtable
define dso_local range(i64 0, -1) i64 @xdl_bogosqrt(i64 noundef %0) local_unnamed_addr #0 {
  %2 = icmp sgt i64 %0, 0
  br i1 %2, label %.lr.ph, label %._crit_edge

.lr.ph:                                           ; preds = %1, %.lr.ph
  %.06 = phi i64 [ %3, %.lr.ph ], [ 1, %1 ]
  %.045 = phi i64 [ %4, %.lr.ph ], [ %0, %1 ]
  %3 = shl i64 %.06, 1
  %4 = lshr i64 %.045, 2
  %.not = icmp samesign ult i64 %.045, 4
  br i1 %.not, label %._crit_edge, label %.lr.ph, !llvm.loop !4

._crit_edge:                                      ; preds = %.lr.ph, %1
  %.0.lcssa = phi i64 [ 1, %1 ], [ %3, %.lr.ph ]
  ret i64 %.0.lcssa
}